target datalayout = "e-m:e-p270:32:32-p271:32:32-p272:64:64-i64:64-i128:128-f80:128-n8:16:32:64-S128"
target triple = "x86_64-pc-linux-gnu"

%struct._value_string = type { i32, ptr }
%struct._dcerpc_info = type { ptr, i32, i64, i8, i32, i32, i32, i32, i32, i32, i32, i32, i32, i32, ptr, ptr, ptr }
%struct.nstime_t = type { i64, i32 }
%struct._packet_info = type { ptr, ptr, i32, i32, %struct.nstime_t, %struct.nstime_t, %struct.nstime_t, i32, ptr, ptr, ptr, ptr, %struct._address, %struct._address, %struct._address, %struct._address, %struct._address, %struct._address, i32, ptr, i32, %struct.anon, i32, i32, i32, i32, ptr, i32, ptr, ptr, i16, i16, i32, i32, i16, i32, i32, ptr, ptr, ptr, i8, i8, i16, i16, i16, i32, i16, i16, ptr, ptr, ptr, ptr, ptr, i32 }
%struct._address = type { i32, i32, ptr, ptr }
%struct.anon = type { i8, [3 x i8] }

@WERR_errors = external constant [0 x %struct._value_string], align 8
@hf_drsuapi_drsuapi_DsGetDomainControllerInfo_ctr = internal global i32 -1, align 4
@hf_drsuapi_drsuapi_DsGetDomainControllerInfo_level_out = internal global i32 -1, align 4
@hf_drsuapi_werror = internal global i32 -1, align 4
@.str.1713 = private unnamed_addr constant [26 x i8] c"DsGetDomainControllerInfo\00", align 1
@.str.1730 = private unnamed_addr constant [12 x i8] c", Error: %s\00", align 1
@.str.1731 = private unnamed_addr constant [25 x i8] c"Unknown DOS error 0x%08x\00", align 1
@.str.1767 = private unnamed_addr constant [52 x i8] c"Pointer to Level Out (drsuapi_DsGetDCInfoCtrLevels)\00", align 1
@.str.1768 = private unnamed_addr constant [40 x i8] c"Pointer to Ctr (drsuapi_DsGetDCInfoCtr)\00", align 1

; Function Attrs: nounwind uwtable
define internal i32 @drsuapi_dissect_element_DsGetDomainControllerInfo_ctr(ptr noundef %0, i32 noundef %1, ptr noundef %2, ptr noundef %3, ptr noundef %4, ptr noundef %5) #0 {
  %7 = alloca ptr, align 8
  %8 = alloca i32, align 4
  %9 = alloca ptr, align 8
  %10 = alloca ptr, align 8
  %11 = alloca ptr, align 8
  %12 = alloca ptr, align 8
  store ptr %0, ptr %7, align 8
  store i32 %1, ptr %8, align 4
  store ptr %2, ptr %9, align 8
  store ptr %3, ptr %10, align 8
  store ptr %4, ptr %11, align 8
  store ptr %5, ptr %12, align 8
  %13 = load ptr, ptr %7, align 8
  %14 = load i32, ptr %8, align 4
  %15 = load ptr, ptr %9, align 8
  %16 = load ptr, ptr %10, align 8
  %17 = load ptr, ptr %11, align 8
  %18 = load ptr, ptr %12, align 8
  %19 = load i32, ptr @hf_drsuapi_drsuapi_DsGetDomainControllerInfo_ctr, align 4
  %20 = call i32 @dissect_ndr_toplevel_pointer(ptr noundef %13, i32 noundef %14, ptr noundef %15, ptr noundef %16, ptr noundef %17, ptr noundef %18, ptr noundef @drsuapi_dissect_element_DsGetDomainControllerInfo_ctr_, i32 noundef 1, ptr noundef @.str.1768, i32 noundef %19)
  store i32 %20, ptr %8, align 4
  %21 = load i32, ptr %8, align 4
  ret i32 %21
}

; Function Attrs: nounwind uwtable
define internal i32 @drsuapi_dissect_element_DsGetDomainControllerInfo_level_out(ptr noundef %0, i32 noundef %1, ptr noundef %2, ptr noundef %3, ptr noundef %4, ptr noundef %5) #0 {
  %7 = alloca ptr, align 8
  %8 = alloca i32, align 4
  %9 = alloca ptr, align 8
  %10 = alloca ptr, align 8
  %11 = alloca ptr, align 8
  %12 = alloca ptr, align 8
  store ptr %0, ptr %7, align 8
  store i32 %1, ptr %8, align 4
  store ptr %2, ptr %9, align 8
  store ptr %3, ptr %10, align 8
  store ptr %4, ptr %11, align 8
  store ptr %5, ptr %12, align 8
  %13 = load ptr, ptr %7, align 8
  %14 = load i32, ptr %8, align 4
  %15 = load ptr, ptr %9, align 8
  %16 = load ptr, ptr %10, align 8
  %17 = load ptr, ptr %11, align 8
  %18 = load ptr, ptr %12, align 8
  %19 = load i32, ptr @hf_drsuapi_drsuapi_DsGetDomainControllerInfo_level_out, align 4
  %20 = call i32 @dissect_ndr_toplevel_pointer(ptr noundef %13, i32 noundef %14, ptr noundef %15, ptr noundef %16, ptr noundef %17, ptr noundef %18, ptr noundef @drsuapi_dissect_element_DsGetDomainControllerInfo_level_out_, i32 noundef 1, ptr noundef @.str.1767, i32 noundef %19)
  store i32 %20, ptr %8, align 4
  %21 = load i32, ptr %8, align 4
  ret i32 %21
}

; Function Attrs: nounwind uwtable
define internal i32 @drsuapi_dissect_DsGetDomainControllerInfo_response(ptr noundef %0, i32 noundef %1, ptr noundef %2, ptr noundef %3, ptr noundef %4, ptr noundef %5) #0 {
  %7 = alloca ptr, align 8
  %8 = alloca i32, align 4
  %9 = alloca ptr, align 8
  %10 = alloca ptr, align 8
  %11 = alloca ptr, align 8
  %12 = alloca ptr, align 8
  %13 = alloca i32, align 4
  store ptr %0, ptr %7, align 8
  store i32 %1, ptr %8, align 4
  store ptr %2, ptr %9, align 8
  store ptr %3, ptr %10, align 8
  store ptr %4, ptr %11, align 8
  store ptr %5, ptr %12, align 8
  %14 = load ptr, ptr %11, align 8
  %15 = getelementptr inbounds %struct._dcerpc_info, ptr %14, i32 0, i32 15
  store ptr @.str.1713, ptr %15, align 8
  %16 = load ptr, ptr %7, align 8
  %17 = load i32, ptr %8, align 4
  %18 = load ptr, ptr %9, align 8
  %19 = load ptr, ptr %10, align 8
  %20 = load ptr, ptr %11, align 8
  %21 = load ptr, ptr %12, align 8
  %22 = call i32 @drsuapi_dissect_element_DsGetDomainControllerInfo_level_out(ptr noundef %16, i32 noundef %17, ptr noundef %18, ptr noundef %19, ptr noundef %20, ptr noundef %21)
  store i32 %22, ptr %8, align 4
  %23 = load ptr, ptr %9, align 8
  %24 = load ptr, ptr %7, align 8
  %25 = load i32, ptr %8, align 4
  %26 = load ptr, ptr %11, align 8
  %27 = load ptr, ptr %12, align 8
  %28 = call i32 @dissect_deferred_pointers(ptr noundef %23, ptr noundef %24, i32 noundef %25, ptr noundef %26, ptr noundef %27)
  store i32 %28, ptr %8, align 4
  %29 = load ptr, ptr %7, align 8
  %30 = load i32, ptr %8, align 4
  %31 = load ptr, ptr %9, align 8
  %32 = load ptr, ptr %10, align 8
  %33 = load ptr, ptr %11, align 8
  %34 = load ptr, ptr %12, align 8
  %35 = call i32 @drsuapi_dissect_element_DsGetDomainControllerInfo_ctr(ptr noundef %29, i32 noundef %30, ptr noundef %31, ptr noundef %32, ptr noundef %33, ptr noundef %34)
  store i32 %35, ptr %8, align 4
  %36 = load ptr, ptr %9, align 8
  %37 = load ptr, ptr %7, align 8
  %38 = load i32, ptr %8, align 4
  %39 = load ptr, ptr %11, align 8
  %40 = load ptr, ptr %12, align 8
  %41 = call i32 @dissect_deferred_pointers(ptr noundef %36, ptr noundef %37, i32 noundef %38, ptr noundef %39, ptr noundef %40)
  store i32 %41, ptr %8, align 4
  %42 = load ptr, ptr %7, align 8
  %43 = load i32, ptr %8, align 4
  %44 = load ptr, ptr %9, align 8
  %45 = load ptr, ptr %10, align 8
  %46 = load ptr, ptr %11, align 8
  %47 = load ptr, ptr %12, align 8
  %48 = load i32, ptr @hf_drsuapi_werror, align 4
  %49 = call i32 @dissect_ndr_uint32(ptr noundef %42, i32 noundef %43, ptr noundef %44, ptr noundef %45, ptr noundef %46, ptr noundef %47, i32 noundef %48, ptr noundef %13)
  store i32 %49, ptr %8, align 4
  %50 = load i32, ptr %13, align 4
  %51 = icmp ne i32 %50, 0
  br i1 %51, label %52, label %58

52:                                               ; preds = %6
  %53 = load ptr, ptr %9, align 8
  %54 = getelementptr inbounds %struct._packet_info, ptr %53, i32 0, i32 1
  %55 = load ptr, ptr %54, align 8
  %56 = load i32, ptr %13, align 4
  %57 = call ptr @val_to_str(i32 noundef %56, ptr noundef @WERR_errors, ptr noundef @.str.1731)
  call void (ptr, i32, ptr, ...) @col_append_fstr(ptr noundef %55, i32 noundef 25, ptr noundef @.str.1730, ptr noundef %57)
  br label %58

58:                                               ; preds = %52, %6
  %59 = load i32, ptr %8, align 4
  ret i32 %59
}