; Function Attrs: nounwind uwtable
define internal i32 @drsuapi_dissect_DsGetDomainControllerInfo_response(ptr noundef %0, i32 noundef %1, ptr noundef %2, ptr noundef %3, ptr noundef initializes((80, 88)) %4, ptr noundef %5) #0 {
  %7 = alloca i32, align 4
  %8 = getelementptr inbounds nuw i8, ptr %4, i64 80
  store ptr @.str.1713, ptr %8, align 8
  %9 = load i32, ptr @hf_drsuapi_drsuapi_DsGetDomainControllerInfo_level_out, align 4
  %10 = tail call i32 @dissect_ndr_toplevel_pointer(ptr noundef %0, i32 noundef %1, ptr noundef %2, ptr noundef %3, ptr noundef %4, ptr noundef %5, ptr noundef nonnull @drsuapi_dissect_element_DsGetDomainControllerInfo_level_out_, i32 noundef 1, ptr noundef nonnull @.str.1767, i32 noundef %9) #5
  %11 = tail call i32 @dissect_deferred_pointers(ptr noundef %2, ptr noundef %0, i32 noundef %10, ptr noundef %4, ptr noundef %5) #5
  %12 = load i32, ptr @hf_drsuapi_drsuapi_DsGetDomainControllerInfo_ctr, align 4
  %13 = tail call i32 @dissect_ndr_toplevel_pointer(ptr noundef %0, i32 noundef %11, ptr noundef %2, ptr noundef %3, ptr noundef %4, ptr noundef %5, ptr noundef nonnull @drsuapi_dissect_element_DsGetDomainControllerInfo_ctr_, i32 noundef 1, ptr noundef nonnull @.str.1768, i32 noundef %12) #5
  %14 = tail call i32 @dissect_deferred_pointers(ptr noundef %2, ptr noundef %0, i32 noundef %13, ptr noundef %4, ptr noundef %5) #5
  %15 = load i32, ptr @hf_drsuapi_werror, align 4
  %16 = call i32 @dissect_ndr_uint32(ptr noundef %0, i32 noundef %14, ptr noundef %2, ptr noundef %3, ptr noundef %4, ptr noundef %5, i32 noundef %15, ptr noundef nonnull %7) #5
  %17 = load i32, ptr %7, align 4
  %.not = icmp eq i32 %17, 0
  br i1 %.not, label %22, label %18

18:                                               ; preds = %6
  %19 = getelementptr inbounds nuw i8, ptr %2, i64 8
  %20 = load ptr, ptr %19, align 8
  %21 = call ptr @val_to_str(i32 noundef %17, ptr noundef nonnull @WERR_errors, ptr noundef nonnull @.str.1731) #5
  call void (ptr, i32, ptr, ...) @col_append_fstr(ptr noundef %20, i32 noundef 25, ptr noundef nonnull @.str.1730, ptr noundef %21) #5
  br label %22

22:                                               ; preds = %18, %6
  ret i32 %16
}